; Function Attrs: mustprogress uwtable
define void @_ZN8QuantLib30FdHestonHullWhiteVanillaEngine28enableMultipleStrikesCachingERKSt6vectorIdSaIdEE(ptr noundef nonnull align 8 dereferenceable(520) %this, ptr noundef nonnull align 8 dereferenceable(24) %strikes) local_unnamed_addr #9 align 2 {
entry:
  %strikes_ = getelementptr inbounds nuw i8, ptr %this, i64 472
  %call = tail call noundef nonnull align 8 dereferenceable(24) ptr @_ZNSt6vectorIdSaIdEEaSERKS1_(ptr noundef nonnull align 8 dereferenceable(24) %strikes_, ptr noundef nonnull align 8 dereferenceable(24) %strikes)
  %vtable = load ptr, ptr %this, align 8, !tbaa !33
  %vfn = getelementptr inbounds i8, ptr %vtable, i64 48
  %0 = load ptr, ptr %vfn, align 8
  tail call void %0(ptr noundef nonnull align 8 dereferenceable(520) %this)
  ret void
}